; Function Attrs: null_pointer_is_valid sspstrong uwtable
define internal i32 @dissect_rpc_tcp(ptr noundef %0, ptr noundef %1, ptr noundef %2, ptr noundef captures(address_is_null) %3) #0 {
  %5 = tail call fastcc zeroext i1 @dissect_rpc_tcp_common(ptr noundef %0, ptr noundef %1, ptr noundef %2, i1 noundef zeroext false, ptr noundef %3, ptr noundef null)
  br i1 %5, label %16, label %6

6:                                                ; preds = %4
  %7 = getelementptr inbounds nuw i8, ptr %1, i64 8
  %8 = load ptr, ptr %7, align 8
  tail call void @col_set_str(ptr noundef %8, i32 noundef 35, ptr noundef nonnull @.str.223)
  %9 = load ptr, ptr %7, align 8
  tail call void @col_set_str(ptr noundef %9, i32 noundef 25, ptr noundef nonnull @.str.344)
  %10 = load i32, ptr @proto_rpc, align 4
  %11 = tail call ptr @proto_tree_add_item(ptr noundef %2, i32 noundef %10, ptr noundef %0, i32 noundef 0, i32 noundef -1, i32 noundef 0)
  %12 = load i32, ptr @ett_rpc, align 4
  %13 = tail call ptr @proto_item_add_subtree(ptr noundef %11, i32 noundef %12)
  %14 = load i32, ptr @hf_rpc_continuation_data, align 4
  %15 = tail call ptr @proto_tree_add_item(ptr noundef %13, i32 noundef %14, ptr noundef %0, i32 noundef 0, i32 noundef -1, i32 noundef 0)
  br label %16

16:                                               ; preds = %6, %4
  %17 = tail call i32 @tvb_reported_length(ptr noundef %0)
  ret i32 %17
}